; Function Attrs: nounwind uwtable
define i32 @Java_sun_nio_ch_UnixFileDispatcherImpl_read0(ptr noundef %0, ptr nocapture noundef readnone %1, ptr noundef %2, i64 noundef %3, i32 noundef %4) local_unnamed_addr #0 {
  %6 = tail call i32 @fdval(ptr noundef %0, ptr noundef %2) #6
  %7 = inttoptr i64 %3 to ptr
  %8 = sext i32 %4 to i64
  %9 = tail call i64 @read(i32 noundef %6, ptr noundef %7, i64 noundef %8) #6
  %10 = trunc i64 %9 to i32
  %11 = tail call i32 @convertReturnVal(ptr noundef %0, i32 noundef %10, i8 noundef zeroext 1) #6
  ret i32 %11
}